; Function Attrs: nounwind uwtable
define ptr @l_Lake_PackageEntry_setInherited(ptr noundef %0) local_unnamed_addr #0 {
  %.val = load i32, ptr %0, align 4, !tbaa !4
  %2 = icmp eq i32 %.val, 1
  br i1 %2, label %3, label %5

3:                                                ; preds = %1
  %4 = getelementptr inbounds nuw i8, ptr %0, i64 48
  store i8 1, ptr %4, align 1, !tbaa !14
  br label %75

5:                                                ; preds = %1
  %6 = getelementptr inbounds nuw i8, ptr %0, i64 8
  %7 = load ptr, ptr %6, align 8, !tbaa !9
  %8 = getelementptr inbounds nuw i8, ptr %0, i64 16
  %9 = load ptr, ptr %8, align 8, !tbaa !9
  %10 = getelementptr inbounds nuw i8, ptr %0, i64 24
  %11 = load ptr, ptr %10, align 8, !tbaa !9
  %12 = getelementptr inbounds nuw i8, ptr %0, i64 32
  %13 = load ptr, ptr %12, align 8, !tbaa !9
  %14 = getelementptr inbounds nuw i8, ptr %0, i64 40
  %15 = load ptr, ptr %14, align 8, !tbaa !9
  %16 = ptrtoint ptr %15 to i64
  %17 = and i64 %16, 1
  %.not = icmp eq i64 %17, 0
  br i1 %.not, label %18, label %lean_inc.exit32

18:                                               ; preds = %5
  %.val.i = load i32, ptr %15, align 4, !tbaa !4
  %19 = icmp sgt i32 %.val.i, 0
  br i1 %19, label %20, label %22, !prof !11

20:                                               ; preds = %18
  %21 = add nuw i32 %.val.i, 1
  store i32 %21, ptr %15, align 4, !tbaa !4
  br label %lean_inc.exit32

22:                                               ; preds = %18
  %.not.i33 = icmp eq i32 %.val.i, 0
  br i1 %.not.i33, label %lean_inc.exit32, label %23

23:                                               ; preds = %22
  tail call void @lean_inc_ref_cold(ptr noundef nonnull %15) #6
  br label %lean_inc.exit32

lean_inc.exit32:                                  ; preds = %23, %22, %20, %5
  %24 = ptrtoint ptr %13 to i64
  %25 = and i64 %24, 1
  %.not46 = icmp eq i64 %25, 0
  br i1 %.not46, label %26, label %lean_inc.exit31

26:                                               ; preds = %lean_inc.exit32
  %.val.i34 = load i32, ptr %13, align 4, !tbaa !4
  %27 = icmp sgt i32 %.val.i34, 0
  br i1 %27, label %28, label %30, !prof !11

28:                                               ; preds = %26
  %29 = add nuw i32 %.val.i34, 1
  store i32 %29, ptr %13, align 4, !tbaa !4
  br label %lean_inc.exit31

30:                                               ; preds = %26
  %.not.i35 = icmp eq i32 %.val.i34, 0
  br i1 %.not.i35, label %lean_inc.exit31, label %31

31:                                               ; preds = %30
  tail call void @lean_inc_ref_cold(ptr noundef nonnull %13) #6
  br label %lean_inc.exit31

lean_inc.exit31:                                  ; preds = %31, %30, %28, %lean_inc.exit32
  %32 = ptrtoint ptr %11 to i64
  %33 = and i64 %32, 1
  %.not47 = icmp eq i64 %33, 0
  br i1 %.not47, label %34, label %lean_inc.exit30

34:                                               ; preds = %lean_inc.exit31
  %.val.i37 = load i32, ptr %11, align 4, !tbaa !4
  %35 = icmp sgt i32 %.val.i37, 0
  br i1 %35, label %36, label %38, !prof !11

36:                                               ; preds = %34
  %37 = add nuw i32 %.val.i37, 1
  store i32 %37, ptr %11, align 4, !tbaa !4
  br label %lean_inc.exit30

38:                                               ; preds = %34
  %.not.i38 = icmp eq i32 %.val.i37, 0
  br i1 %.not.i38, label %lean_inc.exit30, label %39

39:                                               ; preds = %38
  tail call void @lean_inc_ref_cold(ptr noundef nonnull %11) #6
  br label %lean_inc.exit30

lean_inc.exit30:                                  ; preds = %39, %38, %36, %lean_inc.exit31
  %40 = ptrtoint ptr %9 to i64
  %41 = and i64 %40, 1
  %.not48 = icmp eq i64 %41, 0
  br i1 %.not48, label %42, label %lean_inc.exit29

42:                                               ; preds = %lean_inc.exit30
  %.val.i40 = load i32, ptr %9, align 4, !tbaa !4
  %43 = icmp sgt i32 %.val.i40, 0
  br i1 %43, label %44, label %46, !prof !11

44:                                               ; preds = %42
  %45 = add nuw i32 %.val.i40, 1
  store i32 %45, ptr %9, align 4, !tbaa !4
  br label %lean_inc.exit29

46:                                               ; preds = %42
  %.not.i41 = icmp eq i32 %.val.i40, 0
  br i1 %.not.i41, label %lean_inc.exit29, label %47

47:                                               ; preds = %46
  tail call void @lean_inc_ref_cold(ptr noundef nonnull %9) #6
  br label %lean_inc.exit29

lean_inc.exit29:                                  ; preds = %47, %46, %44, %lean_inc.exit30
  %48 = ptrtoint ptr %7 to i64
  %49 = and i64 %48, 1
  %.not49 = icmp eq i64 %49, 0
  br i1 %.not49, label %50, label %lean_inc.exit

50:                                               ; preds = %lean_inc.exit29
  %.val.i43 = load i32, ptr %7, align 4, !tbaa !4
  %51 = icmp sgt i32 %.val.i43, 0
  br i1 %51, label %52, label %54, !prof !11

52:                                               ; preds = %50
  %53 = add nuw i32 %.val.i43, 1
  store i32 %53, ptr %7, align 4, !tbaa !4
  br label %lean_inc.exit

54:                                               ; preds = %50
  %.not.i44 = icmp eq i32 %.val.i43, 0
  br i1 %.not.i44, label %lean_inc.exit, label %55

55:                                               ; preds = %54
  tail call void @lean_inc_ref_cold(ptr noundef nonnull %7) #6
  br label %lean_inc.exit

lean_inc.exit:                                    ; preds = %55, %54, %52, %lean_inc.exit29
  %56 = ptrtoint ptr %0 to i64
  %57 = and i64 %56, 1
  %.not50 = icmp eq i64 %57, 0
  br i1 %.not50, label %58, label %lean_dec.exit

58:                                               ; preds = %lean_inc.exit
  %59 = load i32, ptr %0, align 4, !tbaa !4
  %60 = icmp sgt i32 %59, 1
  br i1 %60, label %61, label %63, !prof !11

61:                                               ; preds = %58
  %62 = add nsw i32 %59, -1
  store i32 %62, ptr %0, align 4, !tbaa !4
  br label %lean_dec.exit

63:                                               ; preds = %58
  %.not.i = icmp eq i32 %59, 0
  br i1 %.not.i, label %lean_dec.exit, label %64

64:                                               ; preds = %63
  tail call void @lean_dec_ref_cold(ptr noundef nonnull %0) #6
  br label %lean_dec.exit

lean_dec.exit:                                    ; preds = %64, %63, %61, %lean_inc.exit
  tail call void @lean_inc_heartbeat() #6
  %65 = tail call noalias ptr @mi_malloc_small(i64 noundef 56) #6
  %66 = icmp eq ptr %65, null
  br i1 %66, label %67, label %lean_alloc_ctor.exit

67:                                               ; preds = %lean_dec.exit
  tail call void @lean_internal_panic_out_of_memory() #7
  unreachable

lean_alloc_ctor.exit:                             ; preds = %lean_dec.exit
  %68 = getelementptr inbounds nuw i8, ptr %65, i64 4
  %69 = getelementptr inbounds nuw i8, ptr %65, i64 48
  store i64 1, ptr %69, align 8, !tbaa !12
  store i32 1, ptr %65, align 4, !tbaa !4
  store i32 327736, ptr %68, align 4
  %70 = getelementptr inbounds nuw i8, ptr %65, i64 8
  store ptr %7, ptr %70, align 8, !tbaa !9
  %71 = getelementptr inbounds nuw i8, ptr %65, i64 16
  store ptr %9, ptr %71, align 8, !tbaa !9
  %72 = getelementptr inbounds nuw i8, ptr %65, i64 24
  store ptr %11, ptr %72, align 8, !tbaa !9
  %73 = getelementptr inbounds nuw i8, ptr %65, i64 32
  store ptr %13, ptr %73, align 8, !tbaa !9
  %74 = getelementptr inbounds nuw i8, ptr %65, i64 40
  store ptr %15, ptr %74, align 8, !tbaa !9
  br label %75

75:                                               ; preds = %lean_alloc_ctor.exit, %3
  %.0 = phi ptr [ %0, %3 ], [ %65, %lean_alloc_ctor.exit ]
  ret ptr %.0
}